(lp1
(lp2
(lp3
S'net2wider'
p4
aS'conv1'
p5
aI2
aI0
aI0
aa(lp6
Vconv1
p7
aVpool1
p8
aVconv2
p9
aVpool2
p10
aVflatten
p11
aVfc1
p12
aVfc2
p13
aa(lp14
aa(lp15
(lp16
S'net2deeper'
p17
aS'conv2'
p18
aI0
aI0
aa(lp19
Vconv1
p20
aVpool1
p21
aVconv2
p22
aVconv3
p23
aVpool2
p24
aVflatten
p25
aVfc1
p26
aVfc2
p27
aa(lp28
aa(lp29
(lp30
g17
aS'fc1'
p31
aI1
aI0
aa(lp32
Vconv1
p33
aVpool1
p34
aVconv2
p35
aVconv3
p36
aVpool2
p37
aVflatten
p38
aVfc1
p39
aVfc2
p40
aVfc3
p41
aa(lp42
cnumpy.core.multiarray
scalar
p43
(cnumpy
dtype
p44
(S'f8'
I0
I1
tRp45
(I3
S'<'
NNNI-1
I-1
I0
tbS'\x00\x00\x00\x00\x00\x00\x00\x00'
tRp46
aaa.