(lp1
(lp2
(lp3
S'net2wider'
p4
aS'conv1'
p5
aI2
aI0
aI0
aa(lp6
Vinput_1
p7
aVconv1
p8
aVpool1
p9
aVdropout_1
p10
aVconv2
p11
aVpool2
p12
aVdropout_2
p13
aVflatten
p14
aVfc1
p15
aVdropout_3
p16
aVlogits
p17
aVsoftmax
p18
aa(lp19
aa.